target datalayout = "e-m:e-p270:32:32-p271:32:32-p272:64:64-i64:64-i128:128-f80:128-n8:16:32:64-S128"
target triple = "x86_64-unknown-linux-gnu"

%"class.std::ios_base::Init" = type { i8 }
%"class.grpc_core::NoDestruct" = type { [8 x i8] }
%"class.std::basic_string_view" = type { i64, ptr }

$_ZNSt17basic_string_viewIcSt11char_traitsIcEEC2EPKc = comdat any

$_ZN9grpc_core19NoDestructSingletonINS_14promise_detail10UnwakeableEE6value_E = comdat any

$_ZN9grpc_core10NoDestructINS_14promise_detail10UnwakeableEEC2IJEEEDpOT_ = comdat any

$_ZNSt11char_traitsIcE6lengthEPKc = comdat any

$__clang_call_terminate = comdat any

$_ZN9grpc_core9ConstructINS_14promise_detail10UnwakeableEJEEEvPT_DpOT0_ = comdat any

$_ZN9grpc_core14promise_detail10UnwakeableC2Ev = comdat any

$_ZN9grpc_core8WakeableC2Ev = comdat any

$_ZTVN9grpc_core8WakeableE = comdat any

$_ZTSN9grpc_core8WakeableE = comdat any

$_ZTIN9grpc_core8WakeableE = comdat any

@_ZStL8__ioinit = internal global %"class.std::ios_base::Init" zeroinitializer, align 1
@__dso_handle = external hidden global i8
@.str = private unnamed_addr constant [28 x i8] c"grpc.client_channel_factory\00", align 1
@_ZN9grpc_core19NoDestructSingletonINS_14promise_detail10UnwakeableEE6value_E = linkonce_odr global %"class.grpc_core::NoDestruct" zeroinitializer, comdat, align 8
@_ZGVN9grpc_core19NoDestructSingletonINS_14promise_detail10UnwakeableEE6value_E = linkonce_odr global i64 0, comdat($_ZN9grpc_core19NoDestructSingletonINS_14promise_detail10UnwakeableEE6value_E), align 8
@_ZTVN9grpc_core14promise_detail10UnwakeableE = external unnamed_addr constant { [6 x ptr] }, align 8
@_ZTVN9grpc_core8WakeableE = linkonce_odr unnamed_addr constant { [6 x ptr] } { [6 x ptr] [ptr null, ptr @_ZTIN9grpc_core8WakeableE, ptr @__cxa_pure_virtual, ptr @__cxa_pure_virtual, ptr @__cxa_pure_virtual, ptr @__cxa_pure_virtual] }, comdat, align 8
@_ZTVN10__cxxabiv117__class_type_infoE = external global [0 x ptr]
@_ZTSN9grpc_core8WakeableE = linkonce_odr constant [22 x i8] c"N9grpc_core8WakeableE\00", comdat, align 1
@_ZTIN9grpc_core8WakeableE = linkonce_odr constant { ptr, ptr } { ptr getelementptr inbounds (ptr, ptr @_ZTVN10__cxxabiv117__class_type_infoE, i64 2), ptr @_ZTSN9grpc_core8WakeableE }, comdat, align 8
@llvm.global_ctors = appending global [2 x { i32, ptr, ptr }] [{ i32, ptr, ptr } { i32 65535, ptr @__cxx_global_var_init.1, ptr @_ZN9grpc_core19NoDestructSingletonINS_14promise_detail10UnwakeableEE6value_E }, { i32, ptr, ptr } { i32 65535, ptr @_GLOBAL__sub_I_client_channel_factory.cc, ptr null }]
@llvm.used = appending global [1 x ptr] [ptr @_ZN9grpc_core19NoDestructSingletonINS_14promise_detail10UnwakeableEE6value_E], section "llvm.metadata"

; Function Attrs: uwtable
define internal void @__cxx_global_var_init() #0 section ".text.startup" {
entry:
  call void @_ZNSt8ios_base4InitC1Ev(ptr noundef nonnull align 1 dereferenceable(1) @_ZStL8__ioinit)
  %0 = call i32 @__cxa_atexit(ptr @_ZNSt8ios_base4InitD1Ev, ptr @_ZStL8__ioinit, ptr @__dso_handle) #3
  ret void
}

declare void @_ZNSt8ios_base4InitC1Ev(ptr noundef nonnull align 1 dereferenceable(1)) unnamed_addr #1

; Function Attrs: nounwind
declare void @_ZNSt8ios_base4InitD1Ev(ptr noundef nonnull align 1 dereferenceable(1)) unnamed_addr #2

; Function Attrs: nounwind
declare i32 @__cxa_atexit(ptr, ptr, ptr) #3

; Function Attrs: mustprogress nounwind uwtable
define { i64, ptr } @_ZN9grpc_core20ClientChannelFactory14ChannelArgNameEv() #4 align 2 {
entry:
  %retval = alloca %"class.std::basic_string_view", align 8
  call void @_ZNSt17basic_string_viewIcSt11char_traitsIcEEC2EPKc(ptr noundef nonnull align 8 dereferenceable(16) %retval, ptr noundef @.str) #3
  %0 = load { i64, ptr }, ptr %retval, align 8
  ret { i64, ptr } %0
}

; Function Attrs: mustprogress nounwind uwtable
define linkonce_odr void @_ZNSt17basic_string_viewIcSt11char_traitsIcEEC2EPKc(ptr noundef nonnull align 8 dereferenceable(16) %this, ptr noundef nonnull %__str) unnamed_addr #4 comdat align 2 personality ptr @__gxx_personality_v0 {
entry:
  %this.addr = alloca ptr, align 8
  %__str.addr = alloca ptr, align 8
  store ptr %this, ptr %this.addr, align 8
  store ptr %__str, ptr %__str.addr, align 8
  %this1 = load ptr, ptr %this.addr, align 8
  %_M_len = getelementptr inbounds %"class.std::basic_string_view", ptr %this1, i32 0, i32 0
  %0 = load ptr, ptr %__str.addr, align 8
  %call = invoke noundef i64 @_ZNSt11char_traitsIcE6lengthEPKc(ptr noundef %0)
          to label %invoke.cont unwind label %terminate.lpad

invoke.cont:                                      ; preds = %entry
  store i64 %call, ptr %_M_len, align 8
  %_M_str = getelementptr inbounds %"class.std::basic_string_view", ptr %this1, i32 0, i32 1
  %1 = load ptr, ptr %__str.addr, align 8
  store ptr %1, ptr %_M_str, align 8
  ret void

terminate.lpad:                                   ; preds = %entry
  %2 = landingpad { ptr, i32 }
          catch ptr null
  %3 = extractvalue { ptr, i32 } %2, 0
  call void @__clang_call_terminate(ptr %3) #8
  unreachable
}

; Function Attrs: uwtable
define internal void @__cxx_global_var_init.1() #0 section ".text.startup" comdat($_ZN9grpc_core19NoDestructSingletonINS_14promise_detail10UnwakeableEE6value_E) {
entry:
  %0 = load i8, ptr @_ZGVN9grpc_core19NoDestructSingletonINS_14promise_detail10UnwakeableEE6value_E, align 8
  %guard.uninitialized = icmp eq i8 %0, 0
  br i1 %guard.uninitialized, label %init.check, label %init.end

init.check:                                       ; preds = %entry
  store i8 1, ptr @_ZGVN9grpc_core19NoDestructSingletonINS_14promise_detail10UnwakeableEE6value_E, align 8
  call void @_ZN9grpc_core10NoDestructINS_14promise_detail10UnwakeableEEC2IJEEEDpOT_(ptr noundef nonnull align 8 dereferenceable(8) @_ZN9grpc_core19NoDestructSingletonINS_14promise_detail10UnwakeableEE6value_E)
  br label %init.end

init.end:                                         ; preds = %init.check, %entry
  ret void
}

; Function Attrs: mustprogress uwtable
define linkonce_odr void @_ZN9grpc_core10NoDestructINS_14promise_detail10UnwakeableEEC2IJEEEDpOT_(ptr noundef nonnull align 8 dereferenceable(8) %this) unnamed_addr #5 comdat align 2 {
entry:
  %this.addr = alloca ptr, align 8
  store ptr %this, ptr %this.addr, align 8
  %this1 = load ptr, ptr %this.addr, align 8
  %space_ = getelementptr inbounds %"class.grpc_core::NoDestruct", ptr %this1, i32 0, i32 0
  call void @_ZN9grpc_core9ConstructINS_14promise_detail10UnwakeableEJEEEvPT_DpOT0_(ptr noundef %space_)
  ret void
}

; Function Attrs: mustprogress nounwind uwtable
define linkonce_odr noundef i64 @_ZNSt11char_traitsIcE6lengthEPKc(ptr noundef %__s) #4 comdat align 2 {
entry:
  %__s.addr = alloca ptr, align 8
  store ptr %__s, ptr %__s.addr, align 8
  %0 = load ptr, ptr %__s.addr, align 8
  %call = call i64 @strlen(ptr noundef %0) #3
  ret i64 %call
}

declare i32 @__gxx_personality_v0(...)

; Function Attrs: noreturn nounwind uwtable
define linkonce_odr hidden void @__clang_call_terminate(ptr noundef %0) #6 comdat {
  %2 = call ptr @__cxa_begin_catch(ptr %0) #3
  call void @_ZSt9terminatev() #8
  unreachable
}

declare ptr @__cxa_begin_catch(ptr)

declare void @_ZSt9terminatev()

; Function Attrs: nounwind
declare i64 @strlen(ptr noundef) #2

; Function Attrs: mustprogress nounwind uwtable
define linkonce_odr void @_ZN9grpc_core9ConstructINS_14promise_detail10UnwakeableEJEEEvPT_DpOT0_(ptr noundef %p) #4 comdat {
entry:
  %p.addr = alloca ptr, align 8
  store ptr %p, ptr %p.addr, align 8
  %0 = load ptr, ptr %p.addr, align 8
  call void @llvm.memset.p0.i64(ptr align 8 %0, i8 0, i64 8, i1 false)
  call void @_ZN9grpc_core14promise_detail10UnwakeableC2Ev(ptr noundef nonnull align 8 dereferenceable(8) %0) #3
  ret void
}

; Function Attrs: nocallback nofree nounwind willreturn memory(argmem: write)
declare void @llvm.memset.p0.i64(ptr nocapture writeonly, i8, i64, i1 immarg) #7

; Function Attrs: mustprogress nounwind uwtable
define linkonce_odr void @_ZN9grpc_core14promise_detail10UnwakeableC2Ev(ptr noundef nonnull align 8 dereferenceable(8) %this) unnamed_addr #4 comdat align 2 {
entry:
  %this.addr = alloca ptr, align 8
  store ptr %this, ptr %this.addr, align 8
  %this1 = load ptr, ptr %this.addr, align 8
  call void @_ZN9grpc_core8WakeableC2Ev(ptr noundef nonnull align 8 dereferenceable(8) %this1) #3
  store ptr getelementptr inbounds ({ [6 x ptr] }, ptr @_ZTVN9grpc_core14promise_detail10UnwakeableE, i32 0, i32 0, i32 2), ptr %this1, align 8
  ret void
}

; Function Attrs: mustprogress nounwind uwtable
define linkonce_odr void @_ZN9grpc_core8WakeableC2Ev(ptr noundef nonnull align 8 dereferenceable(8) %this) unnamed_addr #4 comdat align 2 {
entry:
  %this.addr = alloca ptr, align 8
  store ptr %this, ptr %this.addr, align 8
  %this1 = load ptr, ptr %this.addr, align 8
  store ptr getelementptr inbounds ({ [6 x ptr] }, ptr @_ZTVN9grpc_core8WakeableE, i32 0, i32 0, i32 2), ptr %this1, align 8
  ret void
}

declare void @__cxa_pure_virtual() unnamed_addr

; Function Attrs: uwtable
define internal void @_GLOBAL__sub_I_client_channel_factory.cc() #0 section ".text.startup" {
entry:
  call void @__cxx_global_var_init()
  ret void
}


!llvm.module.flags = !{!0, !1, !2, !3}

!0 = !{i32 1, !"wchar_size", i32 4}
!1 = !{i32 8, !"PIC Level", i32 2}
!2 = !{i32 7, !"uwtable", i32 2}
!3 = !{i32 7, !"frame-pointer", i32 2}
